; Function Attrs: mustprogress uwtable
define hidden void @_ZN2cv20createGaussianFilterEiNS_5Size_IiEEddi(ptr dead_on_unwind noalias writable sret(%"struct.cv::Ptr") align 8 %0, i32 noundef %1, i64 %2, double noundef %3, double noundef %4, i32 noundef %5) local_unnamed_addr #3 personality ptr @__gxx_personality_v0 {
  %7 = alloca %"class.cv::Size_", align 8
  %8 = alloca %"class.cv::Mat", align 8
  %9 = alloca %"class.cv::Mat", align 8
  %10 = alloca %"class.cv::_InputArray", align 8
  %11 = alloca %"class.cv::_InputArray", align 8
  %12 = alloca %"class.cv::Scalar_", align 8
  store i64 %2, ptr %7, align 8
  call void @llvm.lifetime.start.p0(i64 96, ptr nonnull %8) #24
  call void @_ZN2cv3MatC1Ev(ptr noundef nonnull align 8 dereferenceable(96) %8) #24
  call void @llvm.lifetime.start.p0(i64 96, ptr nonnull %9) #24
  call void @_ZN2cv3MatC1Ev(ptr noundef nonnull align 8 dereferenceable(96) %9) #24
  invoke fastcc void @_ZN2cvL21createGaussianKernelsINS_3MatEEEvRT_S3_iRNS_5Size_IiEEdd(ptr noundef nonnull align 8 dereferenceable(96) %8, ptr noundef nonnull align 8 dereferenceable(96) %9, i32 noundef %1, ptr noundef nonnull align 4 dereferenceable(8) %7, double noundef %3, double noundef %4)
          to label %13 unwind label %21

13:                                               ; preds = %6
  call void @llvm.lifetime.start.p0(i64 24, ptr nonnull %10) #24
  %14 = getelementptr inbounds nuw i8, ptr %10, i64 16
  store i32 0, ptr %14, align 8, !tbaa !240
  %15 = getelementptr inbounds nuw i8, ptr %10, i64 20
  store i32 0, ptr %15, align 4, !tbaa !242
  store i32 16842752, ptr %10, align 8, !tbaa !243
  %16 = getelementptr inbounds nuw i8, ptr %10, i64 8
  store ptr %8, ptr %16, align 8, !tbaa !245
  call void @llvm.lifetime.start.p0(i64 24, ptr nonnull %11) #24
  %17 = getelementptr inbounds nuw i8, ptr %11, i64 16
  store i32 0, ptr %17, align 8, !tbaa !240
  %18 = getelementptr inbounds nuw i8, ptr %11, i64 20
  store i32 0, ptr %18, align 4, !tbaa !242
  store i32 16842752, ptr %11, align 8, !tbaa !243
  %19 = getelementptr inbounds nuw i8, ptr %11, i64 8
  store ptr %9, ptr %19, align 8, !tbaa !245
  call void @llvm.lifetime.start.p0(i64 32, ptr nonnull %12) #24
  call void @llvm.memset.p0.i64(ptr noundef nonnull align 8 dereferenceable(32) %12, i8 0, i64 32, i1 false)
  invoke void @_ZN2cv27createSeparableLinearFilterEiiRKNS_11_InputArrayES2_NS_6Point_IiEEdiiRKNS_7Scalar_IdEE(ptr dead_on_unwind writable sret(%"struct.cv::Ptr") align 8 %0, i32 noundef %1, i32 noundef %1, ptr noundef nonnull align 8 dereferenceable(24) %10, ptr noundef nonnull align 8 dereferenceable(24) %11, i64 -1, double noundef 0.000000e+00, i32 noundef %5, i32 noundef -1, ptr noundef nonnull align 8 dereferenceable(32) %12)
          to label %20 unwind label %23

20:                                               ; preds = %13
  call void @llvm.lifetime.end.p0(i64 32, ptr nonnull %12) #24
  call void @llvm.lifetime.end.p0(i64 24, ptr nonnull %11) #24
  call void @llvm.lifetime.end.p0(i64 24, ptr nonnull %10) #24
  call void @_ZN2cv3MatD1Ev(ptr noundef nonnull align 8 dereferenceable(96) %9) #24
  call void @llvm.lifetime.end.p0(i64 96, ptr nonnull %9) #24
  call void @_ZN2cv3MatD1Ev(ptr noundef nonnull align 8 dereferenceable(96) %8) #24
  call void @llvm.lifetime.end.p0(i64 96, ptr nonnull %8) #24
  ret void

21:                                               ; preds = %6
  %22 = landingpad { ptr, i32 }
          cleanup
  br label %25

23:                                               ; preds = %13
  %24 = landingpad { ptr, i32 }
          cleanup
  call void @llvm.lifetime.end.p0(i64 32, ptr nonnull %12) #24
  call void @llvm.lifetime.end.p0(i64 24, ptr nonnull %11) #24
  call void @llvm.lifetime.end.p0(i64 24, ptr nonnull %10) #24
  br label %25

25:                                               ; preds = %23, %21
  %.pn.pn.pn = phi { ptr, i32 } [ %24, %23 ], [ %22, %21 ]
  call void @_ZN2cv3MatD1Ev(ptr noundef nonnull align 8 dereferenceable(96) %9) #24
  call void @llvm.lifetime.end.p0(i64 96, ptr nonnull %9) #24
  call void @_ZN2cv3MatD1Ev(ptr noundef nonnull align 8 dereferenceable(96) %8) #24
  call void @llvm.lifetime.end.p0(i64 96, ptr nonnull %8) #24
  resume { ptr, i32 } %.pn.pn.pn
}